target datalayout = "e-m:e-p270:32:32-p271:32:32-p272:64:64-i64:64-i128:128-f80:128-n8:16:32:64-S128"
target triple = "x86_64-pc-linux-gnu"

; Function Attrs: nounwind uwtable
define internal void @horizontal_compose_daub97i_10bit(ptr noundef %0, ptr noundef %1, i32 noundef %2) #0 {
  %4 = alloca ptr, align 8
  %5 = alloca ptr, align 8
  %6 = alloca i32, align 4
  %7 = alloca i32, align 4
  %8 = alloca i32, align 4
  %9 = alloca i32, align 4
  %10 = alloca i32, align 4
  %11 = alloca i32, align 4
  %12 = alloca ptr, align 8
  %13 = alloca ptr, align 8
  store ptr %0, ptr %4, align 8, !tbaa !44
  store ptr %1, ptr %5, align 8, !tbaa !44
  store i32 %2, ptr %6, align 4, !tbaa !11
  call void @llvm.lifetime.start.p0(i64 4, ptr %7) #5
  %14 = load i32, ptr %6, align 4, !tbaa !11
  %15 = ashr i32 %14, 1
  store i32 %15, ptr %7, align 4, !tbaa !11
  call void @llvm.lifetime.start.p0(i64 4, ptr %8) #5
  call void @llvm.lifetime.start.p0(i64 4, ptr %9) #5
  call void @llvm.lifetime.start.p0(i64 4, ptr %10) #5
  call void @llvm.lifetime.start.p0(i64 4, ptr %11) #5
  call void @llvm.lifetime.start.p0(i64 8, ptr %12) #5
  %16 = load ptr, ptr %4, align 8, !tbaa !44
  store ptr %16, ptr %12, align 8, !tbaa !91
  call void @llvm.lifetime.start.p0(i64 8, ptr %13) #5
  %17 = load ptr, ptr %5, align 8, !tbaa !44
  store ptr %17, ptr %13, align 8, !tbaa !91
  %18 = load ptr, ptr %12, align 8, !tbaa !91
  %19 = getelementptr inbounds i32, ptr %18, i64 0
  %20 = load i32, ptr %19, align 4, !tbaa !11
  %21 = load ptr, ptr %12, align 8, !tbaa !91
  %22 = load i32, ptr %7, align 4, !tbaa !11
  %23 = sext i32 %22 to i64
  %24 = getelementptr inbounds i32, ptr %21, i64 %23
  %25 = load i32, ptr %24, align 4, !tbaa !11
  %26 = load ptr, ptr %12, align 8, !tbaa !91
  %27 = load i32, ptr %7, align 4, !tbaa !11
  %28 = sext i32 %27 to i64
  %29 = getelementptr inbounds i32, ptr %26, i64 %28
  %30 = load i32, ptr %29, align 4, !tbaa !11
  %31 = add i32 %25, %30
  %32 = mul i32 1817, %31
  %33 = add i32 %32, 2048
  %34 = ashr i32 %33, 12
  %35 = sub i32 %20, %34
  %36 = load ptr, ptr %13, align 8, !tbaa !91
  %37 = getelementptr inbounds i32, ptr %36, i64 0
  store i32 %35, ptr %37, align 4, !tbaa !11
  store i32 1, ptr %8, align 4, !tbaa !11
  br label %38

38:                                               ; preds = %103, %3
  %39 = load i32, ptr %8, align 4, !tbaa !11
  %40 = load i32, ptr %7, align 4, !tbaa !11
  %41 = icmp slt i32 %39, %40
  br i1 %41, label %42, label %106

42:                                               ; preds = %38
  %43 = load ptr, ptr %12, align 8, !tbaa !91
  %44 = load i32, ptr %8, align 4, !tbaa !11
  %45 = sext i32 %44 to i64
  %46 = getelementptr inbounds i32, ptr %43, i64 %45
  %47 = load i32, ptr %46, align 4, !tbaa !11
  %48 = load ptr, ptr %12, align 8, !tbaa !91
  %49 = load i32, ptr %8, align 4, !tbaa !11
  %50 = load i32, ptr %7, align 4, !tbaa !11
  %51 = add nsw i32 %49, %50
  %52 = sub nsw i32 %51, 1
  %53 = sext i32 %52 to i64
  %54 = getelementptr inbounds i32, ptr %48, i64 %53
  %55 = load i32, ptr %54, align 4, !tbaa !11
  %56 = load ptr, ptr %12, align 8, !tbaa !91
  %57 = load i32, ptr %8, align 4, !tbaa !11
  %58 = load i32, ptr %7, align 4, !tbaa !11
  %59 = add nsw i32 %57, %58
  %60 = sext i32 %59 to i64
  %61 = getelementptr inbounds i32, ptr %56, i64 %60
  %62 = load i32, ptr %61, align 4, !tbaa !11
  %63 = add i32 %55, %62
  %64 = mul i32 1817, %63
  %65 = add i32 %64, 2048
  %66 = ashr i32 %65, 12
  %67 = sub i32 %47, %66
  %68 = load ptr, ptr %13, align 8, !tbaa !91
  %69 = load i32, ptr %8, align 4, !tbaa !11
  %70 = sext i32 %69 to i64
  %71 = getelementptr inbounds i32, ptr %68, i64 %70
  store i32 %67, ptr %71, align 4, !tbaa !11
  %72 = load ptr, ptr %12, align 8, !tbaa !91
  %73 = load i32, ptr %8, align 4, !tbaa !11
  %74 = load i32, ptr %7, align 4, !tbaa !11
  %75 = add nsw i32 %73, %74
  %76 = sub nsw i32 %75, 1
  %77 = sext i32 %76 to i64
  %78 = getelementptr inbounds i32, ptr %72, i64 %77
  %79 = load i32, ptr %78, align 4, !tbaa !11
  %80 = load ptr, ptr %13, align 8, !tbaa !91
  %81 = load i32, ptr %8, align 4, !tbaa !11
  %82 = sub nsw i32 %81, 1
  %83 = sext i32 %82 to i64
  %84 = getelementptr inbounds i32, ptr %80, i64 %83
  %85 = load i32, ptr %84, align 4, !tbaa !11
  %86 = load ptr, ptr %13, align 8, !tbaa !91
  %87 = load i32, ptr %8, align 4, !tbaa !11
  %88 = sext i32 %87 to i64
  %89 = getelementptr inbounds i32, ptr %86, i64 %88
  %90 = load i32, ptr %89, align 4, !tbaa !11
  %91 = add i32 %85, %90
  %92 = mul i32 113, %91
  %93 = add i32 %92, 64
  %94 = ashr i32 %93, 7
  %95 = sub i32 %79, %94
  %96 = load ptr, ptr %13, align 8, !tbaa !91
  %97 = load i32, ptr %8, align 4, !tbaa !11
  %98 = load i32, ptr %7, align 4, !tbaa !11
  %99 = add nsw i32 %97, %98
  %100 = sub nsw i32 %99, 1
  %101 = sext i32 %100 to i64
  %102 = getelementptr inbounds i32, ptr %96, i64 %101
  store i32 %95, ptr %102, align 4, !tbaa !11
  br label %103

103:                                              ; preds = %42
  %104 = load i32, ptr %8, align 4, !tbaa !11
  %105 = add nsw i32 %104, 1
  store i32 %105, ptr %8, align 4, !tbaa !11
  br label %38, !llvm.loop !122

106:                                              ; preds = %38
  %107 = load ptr, ptr %12, align 8, !tbaa !91
  %108 = load i32, ptr %6, align 4, !tbaa !11
  %109 = sub nsw i32 %108, 1
  %110 = sext i32 %109 to i64
  %111 = getelementptr inbounds i32, ptr %107, i64 %110
  %112 = load i32, ptr %111, align 4, !tbaa !11
  %113 = load ptr, ptr %13, align 8, !tbaa !91
  %114 = load i32, ptr %7, align 4, !tbaa !11
  %115 = sub nsw i32 %114, 1
  %116 = sext i32 %115 to i64
  %117 = getelementptr inbounds i32, ptr %113, i64 %116
  %118 = load i32, ptr %117, align 4, !tbaa !11
  %119 = load ptr, ptr %13, align 8, !tbaa !91
  %120 = load i32, ptr %7, align 4, !tbaa !11
  %121 = sub nsw i32 %120, 1
  %122 = sext i32 %121 to i64
  %123 = getelementptr inbounds i32, ptr %119, i64 %122
  %124 = load i32, ptr %123, align 4, !tbaa !11
  %125 = add i32 %118, %124
  %126 = mul i32 113, %125
  %127 = add i32 %126, 64
  %128 = ashr i32 %127, 7
  %129 = sub i32 %112, %128
  %130 = load ptr, ptr %13, align 8, !tbaa !91
  %131 = load i32, ptr %6, align 4, !tbaa !11
  %132 = sub nsw i32 %131, 1
  %133 = sext i32 %132 to i64
  %134 = getelementptr inbounds i32, ptr %130, i64 %133
  store i32 %129, ptr %134, align 4, !tbaa !11
  %135 = load ptr, ptr %13, align 8, !tbaa !91
  %136 = getelementptr inbounds i32, ptr %135, i64 0
  %137 = load i32, ptr %136, align 4, !tbaa !11
  %138 = load ptr, ptr %13, align 8, !tbaa !91
  %139 = load i32, ptr %7, align 4, !tbaa !11
  %140 = sext i32 %139 to i64
  %141 = getelementptr inbounds i32, ptr %138, i64 %140
  %142 = load i32, ptr %141, align 4, !tbaa !11
  %143 = load ptr, ptr %13, align 8, !tbaa !91
  %144 = load i32, ptr %7, align 4, !tbaa !11
  %145 = sext i32 %144 to i64
  %146 = getelementptr inbounds i32, ptr %143, i64 %145
  %147 = load i32, ptr %146, align 4, !tbaa !11
  %148 = add i32 %142, %147
  %149 = mul i32 217, %148
  %150 = add i32 %149, 2048
  %151 = ashr i32 %150, 12
  %152 = add i32 %137, %151
  store i32 %152, ptr %11, align 4, !tbaa !11
  store i32 %152, ptr %9, align 4, !tbaa !11
  %153 = load i32, ptr %9, align 4, !tbaa !11
  %154 = xor i32 %153, -1
  %155 = ashr i32 %154, 1
  %156 = xor i32 %155, -1
  %157 = load ptr, ptr %12, align 8, !tbaa !91
  %158 = getelementptr inbounds i32, ptr %157, i64 0
  store i32 %156, ptr %158, align 4, !tbaa !11
  store i32 1, ptr %8, align 4, !tbaa !11
  br label %159

159:                                              ; preds = %224, %106
  %160 = load i32, ptr %8, align 4, !tbaa !11
  %161 = load i32, ptr %7, align 4, !tbaa !11
  %162 = icmp slt i32 %160, %161
  br i1 %162, label %163, label %227

163:                                              ; preds = %159
  %164 = load ptr, ptr %13, align 8, !tbaa !91
  %165 = load i32, ptr %8, align 4, !tbaa !11
  %166 = sext i32 %165 to i64
  %167 = getelementptr inbounds i32, ptr %164, i64 %166
  %168 = load i32, ptr %167, align 4, !tbaa !11
  %169 = load ptr, ptr %13, align 8, !tbaa !91
  %170 = load i32, ptr %8, align 4, !tbaa !11
  %171 = load i32, ptr %7, align 4, !tbaa !11
  %172 = add nsw i32 %170, %171
  %173 = sub nsw i32 %172, 1
  %174 = sext i32 %173 to i64
  %175 = getelementptr inbounds i32, ptr %169, i64 %174
  %176 = load i32, ptr %175, align 4, !tbaa !11
  %177 = load ptr, ptr %13, align 8, !tbaa !91
  %178 = load i32, ptr %8, align 4, !tbaa !11
  %179 = load i32, ptr %7, align 4, !tbaa !11
  %180 = add nsw i32 %178, %179
  %181 = sext i32 %180 to i64
  %182 = getelementptr inbounds i32, ptr %177, i64 %181
  %183 = load i32, ptr %182, align 4, !tbaa !11
  %184 = add i32 %176, %183
  %185 = mul i32 217, %184
  %186 = add i32 %185, 2048
  %187 = ashr i32 %186, 12
  %188 = add i32 %168, %187
  store i32 %188, ptr %11, align 4, !tbaa !11
  %189 = load ptr, ptr %13, align 8, !tbaa !91
  %190 = load i32, ptr %8, align 4, !tbaa !11
  %191 = load i32, ptr %7, align 4, !tbaa !11
  %192 = add nsw i32 %190, %191
  %193 = sub nsw i32 %192, 1
  %194 = sext i32 %193 to i64
  %195 = getelementptr inbounds i32, ptr %189, i64 %194
  %196 = load i32, ptr %195, align 4, !tbaa !11
  %197 = load i32, ptr %9, align 4, !tbaa !11
  %198 = load i32, ptr %11, align 4, !tbaa !11
  %199 = add i32 %197, %198
  %200 = mul i32 6497, %199
  %201 = add i32 %200, 2048
  %202 = ashr i32 %201, 12
  %203 = add i32 %196, %202
  store i32 %203, ptr %10, align 4, !tbaa !11
  %204 = load i32, ptr %10, align 4, !tbaa !11
  %205 = xor i32 %204, -1
  %206 = ashr i32 %205, 1
  %207 = xor i32 %206, -1
  %208 = load ptr, ptr %12, align 8, !tbaa !91
  %209 = load i32, ptr %8, align 4, !tbaa !11
  %210 = mul nsw i32 2, %209
  %211 = sub nsw i32 %210, 1
  %212 = sext i32 %211 to i64
  %213 = getelementptr inbounds i32, ptr %208, i64 %212
  store i32 %207, ptr %213, align 4, !tbaa !11
  %214 = load i32, ptr %11, align 4, !tbaa !11
  %215 = xor i32 %214, -1
  %216 = ashr i32 %215, 1
  %217 = xor i32 %216, -1
  %218 = load ptr, ptr %12, align 8, !tbaa !91
  %219 = load i32, ptr %8, align 4, !tbaa !11
  %220 = mul nsw i32 2, %219
  %221 = sext i32 %220 to i64
  %222 = getelementptr inbounds i32, ptr %218, i64 %221
  store i32 %217, ptr %222, align 4, !tbaa !11
  %223 = load i32, ptr %11, align 4, !tbaa !11
  store i32 %223, ptr %9, align 4, !tbaa !11
  br label %224

224:                                              ; preds = %163
  %225 = load i32, ptr %8, align 4, !tbaa !11
  %226 = add nsw i32 %225, 1
  store i32 %226, ptr %8, align 4, !tbaa !11
  br label %159, !llvm.loop !123

227:                                              ; preds = %159
  %228 = load ptr, ptr %13, align 8, !tbaa !91
  %229 = load i32, ptr %6, align 4, !tbaa !11
  %230 = sub nsw i32 %229, 1
  %231 = sext i32 %230 to i64
  %232 = getelementptr inbounds i32, ptr %228, i64 %231
  %233 = load i32, ptr %232, align 4, !tbaa !11
  %234 = load i32, ptr %11, align 4, !tbaa !11
  %235 = load i32, ptr %11, align 4, !tbaa !11
  %236 = add i32 %234, %235
  %237 = mul i32 6497, %236
  %238 = add i32 %237, 2048
  %239 = ashr i32 %238, 12
  %240 = add i32 %233, %239
  %241 = xor i32 %240, -1
  %242 = lshr i32 %241, 1
  %243 = xor i32 %242, -1
  %244 = load ptr, ptr %12, align 8, !tbaa !91
  %245 = load i32, ptr %6, align 4, !tbaa !11
  %246 = sub nsw i32 %245, 1
  %247 = sext i32 %246 to i64
  %248 = getelementptr inbounds i32, ptr %244, i64 %247
  store i32 %243, ptr %248, align 4, !tbaa !11
  call void @llvm.lifetime.end.p0(i64 8, ptr %13) #5
  call void @llvm.lifetime.end.p0(i64 8, ptr %12) #5
  call void @llvm.lifetime.end.p0(i64 4, ptr %11) #5
  call void @llvm.lifetime.end.p0(i64 4, ptr %10) #5
  call void @llvm.lifetime.end.p0(i64 4, ptr %9) #5
  call void @llvm.lifetime.end.p0(i64 4, ptr %8) #5
  call void @llvm.lifetime.end.p0(i64 4, ptr %7) #5
  ret void
}